target datalayout = "e-m:e-p270:32:32-p271:32:32-p272:64:64-i64:64-i128:128-f80:128-n8:16:32:64-S128"
target triple = "x86_64-pc-linux-gnu"

@.str = private unnamed_addr constant [42 x i8] c"slurm_signal_container would kill caller!\00", align 1

; Function Attrs: nounwind uwtable
define dso_local i32 @proctrack_p_signal(i64 noundef %0, i32 noundef %1) #0 {
  %3 = alloca i32, align 4
  %4 = alloca i64, align 8
  %5 = alloca i32, align 4
  %6 = alloca i32, align 4
  %7 = alloca i32, align 4
  store i64 %0, ptr %4, align 8
  store i32 %1, ptr %5, align 4
  call void @llvm.lifetime.start.p0(i64 4, ptr %6) #5
  %8 = load i64, ptr %4, align 8
  %9 = trunc i64 %8 to i32
  store i32 %9, ptr %6, align 4
  %10 = load i64, ptr %4, align 8
  %11 = icmp ne i64 %10, 0
  br i1 %11, label %13, label %12

12:                                               ; preds = %2
  br label %28

13:                                               ; preds = %2
  %14 = load i32, ptr %6, align 4
  %15 = call i32 @getpid() #5
  %16 = icmp eq i32 %14, %15
  br i1 %16, label %21, label %17

17:                                               ; preds = %13
  %18 = load i32, ptr %6, align 4
  %19 = call i32 @getpgid(i32 noundef 0) #5
  %20 = icmp eq i32 %18, %19
  br i1 %20, label %21, label %23

21:                                               ; preds = %17, %13
  %22 = call i32 (ptr, ...) @error(ptr noundef @.str)
  br label %27

23:                                               ; preds = %17
  %24 = load i32, ptr %6, align 4
  %25 = load i32, ptr %5, align 4
  %26 = call i32 @killpg(i32 noundef %24, i32 noundef %25) #5
  store i32 %26, ptr %3, align 4
  store i32 1, ptr %7, align 4
  br label %30

27:                                               ; preds = %21
  br label %28

28:                                               ; preds = %27, %12
  %29 = call ptr @__errno_location() #6
  store i32 3, ptr %29, align 4
  store i32 -1, ptr %3, align 4
  store i32 1, ptr %7, align 4
  br label %30

30:                                               ; preds = %28, %23
  call void @llvm.lifetime.end.p0(i64 4, ptr %6) #5
  %31 = load i32, ptr %3, align 4
  ret i32 %31
}