; Function Attrs: nounwind uwtable
define dso_local i32 @proctrack_p_signal(i64 noundef %0, i32 noundef %1) local_unnamed_addr #2 {
  %3 = trunc i64 %0 to i32
  %.not = icmp eq i64 %0, 0
  br i1 %.not, label %14, label %4

4:                                                ; preds = %2
  %5 = tail call i32 @getpid() #10
  %6 = icmp eq i32 %5, %3
  br i1 %6, label %10, label %7

7:                                                ; preds = %4
  %8 = tail call i32 @getpgid(i32 noundef 0) #10
  %9 = icmp eq i32 %8, %3
  br i1 %9, label %10, label %12

10:                                               ; preds = %7, %4
  %11 = tail call i32 (ptr, ...) @error(ptr noundef nonnull @.str) #10
  br label %14

12:                                               ; preds = %7
  %13 = tail call i32 @killpg(i32 noundef %3, i32 noundef %1) #10
  br label %16

14:                                               ; preds = %2, %10
  %15 = tail call ptr @__errno_location() #11
  store i32 3, ptr %15, align 4
  br label %16

16:                                               ; preds = %14, %12
  %.0 = phi i32 [ -1, %14 ], [ %13, %12 ]
  ret i32 %.0
}